; Function Attrs: mustprogress uwtable
define void @_ZN7rocksdb22FullFilterBlockBuilder6FinishERKNS_11BlockHandleEPNS_5SliceEPSt10unique_ptrIA_KcSt14default_deleteIS8_EE(ptr dead_on_unwind noalias writable sret(%"class.rocksdb::Status") align 8 initializes((0, 6), (8, 16)) %0, ptr noundef nonnull align 8 dereferenceable(40) %1, ptr nonnull readnone align 8 captures(none) %2, ptr noundef writeonly captures(none) %3, ptr noundef %4) unnamed_addr #4 align 2 personality ptr @__gxx_personality_v0 {
  %6 = getelementptr inbounds nuw i8, ptr %0, i64 8
  store ptr null, ptr %6, align 8, !tbaa !33, !alias.scope !37
  tail call void @llvm.memset.p0.i64(ptr noundef nonnull align 8 dereferenceable(16) %0, i8 0, i64 6, i1 false), !alias.scope !37
  %7 = getelementptr inbounds nuw i8, ptr %1, i64 8
  %8 = load ptr, ptr %7, align 8, !tbaa !34
  %.not = icmp eq ptr %4, null
  %9 = getelementptr inbounds nuw i8, ptr %1, i64 32
  %10 = select i1 %.not, ptr %9, ptr %4
  %11 = load ptr, ptr %8, align 8, !tbaa !11
  %12 = getelementptr inbounds nuw i8, ptr %11, i64 48
  %13 = load ptr, ptr %12, align 8
  %14 = invoke { ptr, i64 } %13(ptr noundef nonnull align 8 dereferenceable(8) %8, ptr noundef nonnull %10, ptr noundef nonnull %0)
          to label %15 unwind label %18

15:                                               ; preds = %5
  %16 = extractvalue { ptr, i64 } %14, 0
  %17 = extractvalue { ptr, i64 } %14, 1
  store ptr %16, ptr %3, align 8, !tbaa !40
  %.sroa.5.0..sroa_idx = getelementptr inbounds nuw i8, ptr %3, i64 8
  store i64 %17, ptr %.sroa.5.0..sroa_idx, align 8, !tbaa !41
  ret void

18:                                               ; preds = %5
  %19 = landingpad { ptr, i32 }
          cleanup
  %20 = load ptr, ptr %6, align 8, !tbaa !40
  %.not.i.i = icmp eq ptr %20, null
  br i1 %.not.i.i, label %_ZN7rocksdb6StatusD2Ev.exit, label %_ZNKSt14default_deleteIA_KcEclIS0_EENSt9enable_ifIXsr14is_convertibleIPA_T_PS1_EE5valueEvE4typeEPS5_.exit.i.i

_ZNKSt14default_deleteIA_KcEclIS0_EENSt9enable_ifIXsr14is_convertibleIPA_T_PS1_EE5valueEvE4typeEPS5_.exit.i.i: ; preds = %18
  tail call void @_ZdaPv(ptr noundef nonnull %20) #21
  br label %_ZN7rocksdb6StatusD2Ev.exit

_ZN7rocksdb6StatusD2Ev.exit:                      ; preds = %18, %_ZNKSt14default_deleteIA_KcEclIS0_EENSt9enable_ifIXsr14is_convertibleIPA_T_PS1_EE5valueEvE4typeEPS5_.exit.i.i
  store ptr null, ptr %6, align 8, !tbaa !40
  resume { ptr, i32 } %19
}